; Function Attrs: mustprogress nofree norecurse nosync nounwind willreturn memory(argmem: write) uwtable
define dso_local range(i32 0, 2) i32 @LZ4_resetStreamStateHC(ptr noundef %0, ptr noundef %1) local_unnamed_addr #7 {
  %3 = icmp ne ptr %0, null
  %4 = ptrtoint ptr %0 to i64
  %5 = and i64 %4, 7
  %.not.i = icmp eq i64 %5, 0
  %or.cond10.i = and i1 %3, %.not.i
  br i1 %or.cond10.i, label %LZ4HC_init_internal.exit, label %LZ4_initStreamHC.exit.thread

LZ4HC_init_internal.exit:                         ; preds = %2
  tail call void @llvm.memset.p0.i64(ptr noundef nonnull align 8 dereferenceable(262192) %0, i8 0, i64 262192, i1 false)
  %6 = getelementptr inbounds nuw i8, ptr %0, i64 262180
  store i16 9, ptr %6, align 4, !tbaa !26
  %7 = getelementptr inbounds nuw i8, ptr %0, i64 262168
  %8 = getelementptr inbounds nuw i8, ptr %0, i64 262152
  %9 = getelementptr inbounds nuw i8, ptr %0, i64 262144
  %10 = getelementptr inbounds nuw i8, ptr %0, i64 262176
  store i32 65536, ptr %10, align 8, !tbaa !33
  store ptr %1, ptr %8, align 8, !tbaa !13
  store ptr %1, ptr %9, align 8, !tbaa !4
  %11 = getelementptr inbounds nuw i8, ptr %0, i64 262160
  store ptr %1, ptr %11, align 8, !tbaa !34
  store i32 65536, ptr %7, align 8, !tbaa !14
  %12 = getelementptr inbounds nuw i8, ptr %0, i64 262172
  store i32 65536, ptr %12, align 4, !tbaa !35
  br label %LZ4_initStreamHC.exit.thread

LZ4_initStreamHC.exit.thread:                     ; preds = %2, %LZ4HC_init_internal.exit
  %.0 = phi i32 [ 0, %LZ4HC_init_internal.exit ], [ 1, %2 ]
  ret i32 %.0
}